target datalayout = "e-m:e-p270:32:32-p271:32:32-p272:64:64-i64:64-i128:128-f80:128-n8:16:32:64-S128"
target triple = "x86_64-pc-linux-gnu"

; Function Attrs: nounwind uwtable
define void @Java_sun_java2d_loops_GraphicsPrimitiveMgr_registerNativeLoops(ptr noundef %0, ptr noundef %1) #0 {
  %3 = alloca ptr, align 8
  %4 = alloca ptr, align 8
  store ptr %0, ptr %3, align 8
  store ptr %1, ptr %4, align 8
  %5 = load ptr, ptr %3, align 8
  %6 = call zeroext i8 @RegisterAnyByte(ptr noundef %5)
  %7 = icmp ne i8 %6, 0
  br i1 %7, label %8, label %112

8:                                                ; preds = %2
  %9 = load ptr, ptr %3, align 8
  %10 = call zeroext i8 @RegisterByteBinary1Bit(ptr noundef %9)
  %11 = icmp ne i8 %10, 0
  br i1 %11, label %12, label %112

12:                                               ; preds = %8
  %13 = load ptr, ptr %3, align 8
  %14 = call zeroext i8 @RegisterByteBinary2Bit(ptr noundef %13)
  %15 = icmp ne i8 %14, 0
  br i1 %15, label %16, label %112

16:                                               ; preds = %12
  %17 = load ptr, ptr %3, align 8
  %18 = call zeroext i8 @RegisterByteBinary4Bit(ptr noundef %17)
  %19 = icmp ne i8 %18, 0
  br i1 %19, label %20, label %112

20:                                               ; preds = %16
  %21 = load ptr, ptr %3, align 8
  %22 = call zeroext i8 @RegisterByteIndexed(ptr noundef %21)
  %23 = icmp ne i8 %22, 0
  br i1 %23, label %24, label %112

24:                                               ; preds = %20
  %25 = load ptr, ptr %3, align 8
  %26 = call zeroext i8 @RegisterByteGray(ptr noundef %25)
  %27 = icmp ne i8 %26, 0
  br i1 %27, label %28, label %112

28:                                               ; preds = %24
  %29 = load ptr, ptr %3, align 8
  %30 = call zeroext i8 @RegisterIndex8Gray(ptr noundef %29)
  %31 = icmp ne i8 %30, 0
  br i1 %31, label %32, label %112

32:                                               ; preds = %28
  %33 = load ptr, ptr %3, align 8
  %34 = call zeroext i8 @RegisterIndex12Gray(ptr noundef %33)
  %35 = icmp ne i8 %34, 0
  br i1 %35, label %36, label %112

36:                                               ; preds = %32
  %37 = load ptr, ptr %3, align 8
  %38 = call zeroext i8 @RegisterAnyShort(ptr noundef %37)
  %39 = icmp ne i8 %38, 0
  br i1 %39, label %40, label %112

40:                                               ; preds = %36
  %41 = load ptr, ptr %3, align 8
  %42 = call zeroext i8 @RegisterUshort555Rgb(ptr noundef %41)
  %43 = icmp ne i8 %42, 0
  br i1 %43, label %44, label %112

44:                                               ; preds = %40
  %45 = load ptr, ptr %3, align 8
  %46 = call zeroext i8 @RegisterUshort565Rgb(ptr noundef %45)
  %47 = icmp ne i8 %46, 0
  br i1 %47, label %48, label %112

48:                                               ; preds = %44
  %49 = load ptr, ptr %3, align 8
  %50 = call zeroext i8 @RegisterUshort4444Argb(ptr noundef %49)
  %51 = icmp ne i8 %50, 0
  br i1 %51, label %52, label %112

52:                                               ; preds = %48
  %53 = load ptr, ptr %3, align 8
  %54 = call zeroext i8 @RegisterUshort555Rgbx(ptr noundef %53)
  %55 = icmp ne i8 %54, 0
  br i1 %55, label %56, label %112

56:                                               ; preds = %52
  %57 = load ptr, ptr %3, align 8
  %58 = call zeroext i8 @RegisterUshortGray(ptr noundef %57)
  %59 = icmp ne i8 %58, 0
  br i1 %59, label %60, label %112

60:                                               ; preds = %56
  %61 = load ptr, ptr %3, align 8
  %62 = call zeroext i8 @RegisterUshortIndexed(ptr noundef %61)
  %63 = icmp ne i8 %62, 0
  br i1 %63, label %64, label %112

64:                                               ; preds = %60
  %65 = load ptr, ptr %3, align 8
  %66 = call zeroext i8 @RegisterAny3Byte(ptr noundef %65)
  %67 = icmp ne i8 %66, 0
  br i1 %67, label %68, label %112

68:                                               ; preds = %64
  %69 = load ptr, ptr %3, align 8
  %70 = call zeroext i8 @RegisterThreeByteBgr(ptr noundef %69)
  %71 = icmp ne i8 %70, 0
  br i1 %71, label %72, label %112

72:                                               ; preds = %68
  %73 = load ptr, ptr %3, align 8
  %74 = call zeroext i8 @RegisterAnyInt(ptr noundef %73)
  %75 = icmp ne i8 %74, 0
  br i1 %75, label %76, label %112

76:                                               ; preds = %72
  %77 = load ptr, ptr %3, align 8
  %78 = call zeroext i8 @RegisterIntArgb(ptr noundef %77)
  %79 = icmp ne i8 %78, 0
  br i1 %79, label %80, label %112

80:                                               ; preds = %76
  %81 = load ptr, ptr %3, align 8
  %82 = call zeroext i8 @RegisterIntArgbPre(ptr noundef %81)
  %83 = icmp ne i8 %82, 0
  br i1 %83, label %84, label %112

84:                                               ; preds = %80
  %85 = load ptr, ptr %3, align 8
  %86 = call zeroext i8 @RegisterIntArgbBm(ptr noundef %85)
  %87 = icmp ne i8 %86, 0
  br i1 %87, label %88, label %112

88:                                               ; preds = %84
  %89 = load ptr, ptr %3, align 8
  %90 = call zeroext i8 @RegisterIntRgb(ptr noundef %89)
  %91 = icmp ne i8 %90, 0
  br i1 %91, label %92, label %112

92:                                               ; preds = %88
  %93 = load ptr, ptr %3, align 8
  %94 = call zeroext i8 @RegisterIntBgr(ptr noundef %93)
  %95 = icmp ne i8 %94, 0
  br i1 %95, label %96, label %112

96:                                               ; preds = %92
  %97 = load ptr, ptr %3, align 8
  %98 = call zeroext i8 @RegisterIntRgbx(ptr noundef %97)
  %99 = icmp ne i8 %98, 0
  br i1 %99, label %100, label %112

100:                                              ; preds = %96
  %101 = load ptr, ptr %3, align 8
  %102 = call zeroext i8 @RegisterAny4Byte(ptr noundef %101)
  %103 = icmp ne i8 %102, 0
  br i1 %103, label %104, label %112

104:                                              ; preds = %100
  %105 = load ptr, ptr %3, align 8
  %106 = call zeroext i8 @RegisterFourByteAbgr(ptr noundef %105)
  %107 = icmp ne i8 %106, 0
  br i1 %107, label %108, label %112

108:                                              ; preds = %104
  %109 = load ptr, ptr %3, align 8
  %110 = call zeroext i8 @RegisterFourByteAbgrPre(ptr noundef %109)
  %111 = icmp ne i8 %110, 0
  br i1 %111, label %113, label %112

112:                                              ; preds = %108, %104, %100, %96, %92, %88, %84, %80, %76, %72, %68, %64, %60, %56, %52, %48, %44, %40, %36, %32, %28, %24, %20, %16, %12, %8, %2
  br label %113

113:                                              ; preds = %112, %108
  ret void
}