; Function Attrs: nounwind uwtable
define void @Java_sun_java2d_loops_GraphicsPrimitiveMgr_registerNativeLoops(ptr noundef %0, ptr nocapture noundef readnone %1) local_unnamed_addr #0 {
  %3 = tail call zeroext i8 @RegisterAnyByte(ptr noundef %0) #6
  %.not = icmp eq i8 %3, 0
  br i1 %.not, label %56, label %4

4:                                                ; preds = %2
  %5 = tail call zeroext i8 @RegisterByteBinary1Bit(ptr noundef %0) #6
  %.not27 = icmp eq i8 %5, 0
  br i1 %.not27, label %56, label %6

6:                                                ; preds = %4
  %7 = tail call zeroext i8 @RegisterByteBinary2Bit(ptr noundef %0) #6
  %.not28 = icmp eq i8 %7, 0
  br i1 %.not28, label %56, label %8

8:                                                ; preds = %6
  %9 = tail call zeroext i8 @RegisterByteBinary4Bit(ptr noundef %0) #6
  %.not29 = icmp eq i8 %9, 0
  br i1 %.not29, label %56, label %10

10:                                               ; preds = %8
  %11 = tail call zeroext i8 @RegisterByteIndexed(ptr noundef %0) #6
  %.not30 = icmp eq i8 %11, 0
  br i1 %.not30, label %56, label %12

12:                                               ; preds = %10
  %13 = tail call zeroext i8 @RegisterByteGray(ptr noundef %0) #6
  %.not31 = icmp eq i8 %13, 0
  br i1 %.not31, label %56, label %14

14:                                               ; preds = %12
  %15 = tail call zeroext i8 @RegisterIndex8Gray(ptr noundef %0) #6
  %.not32 = icmp eq i8 %15, 0
  br i1 %.not32, label %56, label %16

16:                                               ; preds = %14
  %17 = tail call zeroext i8 @RegisterIndex12Gray(ptr noundef %0) #6
  %.not33 = icmp eq i8 %17, 0
  br i1 %.not33, label %56, label %18

18:                                               ; preds = %16
  %19 = tail call zeroext i8 @RegisterAnyShort(ptr noundef %0) #6
  %.not34 = icmp eq i8 %19, 0
  br i1 %.not34, label %56, label %20

20:                                               ; preds = %18
  %21 = tail call zeroext i8 @RegisterUshort555Rgb(ptr noundef %0) #6
  %.not35 = icmp eq i8 %21, 0
  br i1 %.not35, label %56, label %22

22:                                               ; preds = %20
  %23 = tail call zeroext i8 @RegisterUshort565Rgb(ptr noundef %0) #6
  %.not36 = icmp eq i8 %23, 0
  br i1 %.not36, label %56, label %24

24:                                               ; preds = %22
  %25 = tail call zeroext i8 @RegisterUshort4444Argb(ptr noundef %0) #6
  %.not37 = icmp eq i8 %25, 0
  br i1 %.not37, label %56, label %26

26:                                               ; preds = %24
  %27 = tail call zeroext i8 @RegisterUshort555Rgbx(ptr noundef %0) #6
  %.not38 = icmp eq i8 %27, 0
  br i1 %.not38, label %56, label %28

28:                                               ; preds = %26
  %29 = tail call zeroext i8 @RegisterUshortGray(ptr noundef %0) #6
  %.not39 = icmp eq i8 %29, 0
  br i1 %.not39, label %56, label %30

30:                                               ; preds = %28
  %31 = tail call zeroext i8 @RegisterUshortIndexed(ptr noundef %0) #6
  %.not40 = icmp eq i8 %31, 0
  br i1 %.not40, label %56, label %32

32:                                               ; preds = %30
  %33 = tail call zeroext i8 @RegisterAny3Byte(ptr noundef %0) #6
  %.not41 = icmp eq i8 %33, 0
  br i1 %.not41, label %56, label %34

34:                                               ; preds = %32
  %35 = tail call zeroext i8 @RegisterThreeByteBgr(ptr noundef %0) #6
  %.not42 = icmp eq i8 %35, 0
  br i1 %.not42, label %56, label %36

36:                                               ; preds = %34
  %37 = tail call zeroext i8 @RegisterAnyInt(ptr noundef %0) #6
  %.not43 = icmp eq i8 %37, 0
  br i1 %.not43, label %56, label %38

38:                                               ; preds = %36
  %39 = tail call zeroext i8 @RegisterIntArgb(ptr noundef %0) #6
  %.not44 = icmp eq i8 %39, 0
  br i1 %.not44, label %56, label %40

40:                                               ; preds = %38
  %41 = tail call zeroext i8 @RegisterIntArgbPre(ptr noundef %0) #6
  %.not45 = icmp eq i8 %41, 0
  br i1 %.not45, label %56, label %42

42:                                               ; preds = %40
  %43 = tail call zeroext i8 @RegisterIntArgbBm(ptr noundef %0) #6
  %.not46 = icmp eq i8 %43, 0
  br i1 %.not46, label %56, label %44

44:                                               ; preds = %42
  %45 = tail call zeroext i8 @RegisterIntRgb(ptr noundef %0) #6
  %.not47 = icmp eq i8 %45, 0
  br i1 %.not47, label %56, label %46

46:                                               ; preds = %44
  %47 = tail call zeroext i8 @RegisterIntBgr(ptr noundef %0) #6
  %.not48 = icmp eq i8 %47, 0
  br i1 %.not48, label %56, label %48

48:                                               ; preds = %46
  %49 = tail call zeroext i8 @RegisterIntRgbx(ptr noundef %0) #6
  %.not49 = icmp eq i8 %49, 0
  br i1 %.not49, label %56, label %50

50:                                               ; preds = %48
  %51 = tail call zeroext i8 @RegisterAny4Byte(ptr noundef %0) #6
  %.not50 = icmp eq i8 %51, 0
  br i1 %.not50, label %56, label %52

52:                                               ; preds = %50
  %53 = tail call zeroext i8 @RegisterFourByteAbgr(ptr noundef %0) #6
  %.not51 = icmp eq i8 %53, 0
  br i1 %.not51, label %56, label %54

54:                                               ; preds = %52
  %55 = tail call zeroext i8 @RegisterFourByteAbgrPre(ptr noundef %0) #6
  br label %56

56:                                               ; preds = %54, %2, %4, %6, %8, %10, %12, %14, %16, %18, %20, %22, %24, %26, %28, %30, %32, %34, %36, %38, %40, %42, %44, %46, %48, %50, %52
  ret void
}